; Function Attrs: nounwind uwtable
define ptr @Cudd_addBddStrictThreshold(ptr noundef %0, ptr noundef %1, double noundef %2) local_unnamed_addr #0 {
  %4 = tail call ptr @cuddUniqueConst(ptr noundef %0, double noundef %2) #4
  %5 = icmp eq ptr %4, null
  br i1 %5, label %30, label %6

6:                                                ; preds = %3
  %7 = ptrtoint ptr %4 to i64
  %8 = and i64 %7, -2
  %9 = inttoptr i64 %8 to ptr
  %10 = getelementptr inbounds nuw i8, ptr %9, i64 4
  %11 = load i32, ptr %10, align 4, !tbaa !3
  %12 = add i32 %11, 1
  store i32 %12, ptr %10, align 4, !tbaa !3
  %13 = getelementptr inbounds nuw i8, ptr %0, i64 448
  br label %14

14:                                               ; preds = %14, %6
  store i32 0, ptr %13, align 8, !tbaa !11
  %15 = tail call ptr @addBddDoStrictThreshold(ptr noundef %0, ptr noundef %1, ptr noundef nonnull %4)
  %16 = load i32, ptr %13, align 8, !tbaa !11
  %17 = icmp eq i32 %16, 1
  br i1 %17, label %14, label %18, !llvm.loop !30

18:                                               ; preds = %14
  %19 = icmp eq ptr %15, null
  br i1 %19, label %20, label %21

20:                                               ; preds = %18
  tail call void @Cudd_RecursiveDeref(ptr noundef nonnull %0, ptr noundef nonnull %4) #4
  br label %30

21:                                               ; preds = %18
  %22 = ptrtoint ptr %15 to i64
  %23 = and i64 %22, -2
  %24 = inttoptr i64 %23 to ptr
  %25 = getelementptr inbounds nuw i8, ptr %24, i64 4
  %26 = load i32, ptr %25, align 4, !tbaa !3
  %27 = add i32 %26, 1
  store i32 %27, ptr %25, align 4, !tbaa !3
  tail call void @Cudd_RecursiveDeref(ptr noundef nonnull %0, ptr noundef nonnull %4) #4
  %28 = load i32, ptr %25, align 4, !tbaa !3
  %29 = add i32 %28, -1
  store i32 %29, ptr %25, align 4, !tbaa !3
  br label %30

30:                                               ; preds = %3, %21, %20
  %.0 = phi ptr [ null, %20 ], [ %15, %21 ], [ null, %3 ]
  ret ptr %.0
}